target datalayout = "e-m:e-p270:32:32-p271:32:32-p272:64:64-i64:64-i128:128-f80:128-n8:16:32:64-S128"
target triple = "x86_64-pc-linux-gnu"

%"class.clang::SourceLocation" = type { i32 }
%"class.clang::AttributeCommonInfo" = type { ptr, ptr, %"class.clang::SourceRange", %"class.clang::SourceLocation", i32 }
%"class.clang::SourceRange" = type { %"class.clang::SourceLocation", %"class.clang::SourceLocation" }
%"class.clang::SemaBase::SemaDiagnosticBuilder" = type { ptr, %"class.clang::SourceLocation", i32, ptr, i8, [7 x i8], %"class.std::optional.1034", %"class.std::optional.1044" }
%"class.std::optional.1034" = type { %"struct.std::_Optional_base.1035" }
%"struct.std::_Optional_base.1035" = type { %"struct.std::_Optional_payload.1037" }
%"struct.std::_Optional_payload.1037" = type { %"struct.std::_Optional_payload.base.1041", [7 x i8] }
%"struct.std::_Optional_payload.base.1041" = type { %"struct.std::_Optional_payload_base.base.1040" }
%"struct.std::_Optional_payload_base.base.1040" = type { %"union.std::_Optional_payload_base<clang::SemaBase::ImmediateDiagBuilder>::_Storage", i8 }
%"union.std::_Optional_payload_base<clang::SemaBase::ImmediateDiagBuilder>::_Storage" = type { %"class.clang::SemaBase::ImmediateDiagBuilder" }
%"class.clang::SemaBase::ImmediateDiagBuilder" = type <{ %"class.clang::DiagnosticBuilder.base", [6 x i8], ptr, i32, [4 x i8] }>
%"class.clang::DiagnosticBuilder.base" = type <{ %"class.clang::StreamingDiagnostic", ptr, i8, i8 }>
%"class.clang::StreamingDiagnostic" = type { ptr, ptr }
%"class.std::optional.1044" = type { %"struct.std::_Optional_base.1045" }
%"struct.std::_Optional_base.1045" = type { %"struct.std::_Optional_payload.1047" }
%"struct.std::_Optional_payload.1047" = type { %"struct.std::_Optional_payload_base.base.1049", [3 x i8] }
%"struct.std::_Optional_payload_base.base.1049" = type <{ %"union.std::_Optional_payload_base<unsigned int>::_Storage", i8 }>
%"union.std::_Optional_payload_base<unsigned int>::_Storage" = type { i32 }

; Function Attrs: mustprogress nounwind uwtable
define linkonce_odr hidden i32 @_ZNK5clang11SourceRange8getBeginEv(ptr noundef nonnull align 4 dereferenceable(8) %0) #0 comdat align 2 {
  %2 = alloca %"class.clang::SourceLocation", align 4
  %3 = alloca ptr, align 8
  store ptr %0, ptr %3, align 8
  %4 = load ptr, ptr %3, align 8
  %5 = getelementptr inbounds nuw %"class.clang::SourceRange", ptr %4, i32 0, i32 0
  call void @llvm.memcpy.p0.p0.i64(ptr align 4 %2, ptr align 4 %5, i64 4, i1 false)
  %6 = getelementptr inbounds nuw %"class.clang::SourceLocation", ptr %2, i32 0, i32 0
  %7 = load i32, ptr %6, align 4
  ret i32 %7
}

; Function Attrs: mustprogress nounwind uwtable
define linkonce_odr hidden noundef zeroext i1 @_ZNK5clang19AttributeCommonInfo25isRegularKeywordAttributeEv(ptr noundef nonnull align 8 dereferenceable(32) %0) #0 comdat align 2 {
  %2 = alloca ptr, align 8
  store ptr %0, ptr %2, align 8
  %3 = load ptr, ptr %2, align 8
  %4 = getelementptr inbounds nuw %"class.clang::AttributeCommonInfo", ptr %3, i32 0, i32 4
  %5 = load i32, ptr %4, align 4
  %6 = lshr i32 %5, 25
  %7 = and i32 %6, 1
  %8 = icmp ne i32 %7, 0
  ret i1 %8
}

; Function Attrs: mustprogress nounwind uwtable
define linkonce_odr hidden i32 @_ZNK5clang19AttributeCommonInfo6getLocEv(ptr noundef nonnull align 8 dereferenceable(32) %0) #0 comdat align 2 {
  %2 = alloca %"class.clang::SourceLocation", align 4
  %3 = alloca ptr, align 8
  store ptr %0, ptr %3, align 8
  %4 = load ptr, ptr %3, align 8
  %5 = getelementptr inbounds nuw %"class.clang::AttributeCommonInfo", ptr %4, i32 0, i32 2
  %6 = call i32 @_ZNK5clang11SourceRange8getBeginEv(ptr noundef nonnull align 4 dereferenceable(8) %5)
  %7 = getelementptr inbounds nuw %"class.clang::SourceLocation", ptr %2, i32 0, i32 0
  store i32 %6, ptr %7, align 4
  %8 = getelementptr inbounds nuw %"class.clang::SourceLocation", ptr %2, i32 0, i32 0
  %9 = load i32, ptr %8, align 4
  ret i32 %9
}

; Function Attrs: mustprogress nounwind uwtable
define internal noundef zeroext i1 @_ZNK12_GLOBAL__N_121ParsedAttrInfoCFGuard20diagAppertainsToStmtERN5clang4SemaERKNS1_10ParsedAttrEPKNS1_4StmtE(ptr noundef nonnull align 8 dereferenceable(48) %0, ptr noundef nonnull align 8 dereferenceable(17560) %1, ptr noundef nonnull align 8 dereferenceable(72) %2, ptr noundef %3) unnamed_addr #0 align 2 {
  %5 = alloca ptr, align 8
  %6 = alloca ptr, align 8
  %7 = alloca ptr, align 8
  %8 = alloca ptr, align 8
  %9 = alloca %"class.clang::SemaBase::SemaDiagnosticBuilder", align 8
  %10 = alloca %"class.clang::SourceLocation", align 4
  %11 = alloca i8, align 1
  %12 = alloca %"class.clang::SourceLocation", align 4
  store ptr %0, ptr %5, align 8
  store ptr %1, ptr %6, align 8
  store ptr %2, ptr %7, align 8
  store ptr %3, ptr %8, align 8
  %13 = load ptr, ptr %6, align 8
  %14 = getelementptr inbounds i8, ptr %13, i64 8
  %15 = load ptr, ptr %7, align 8
  %16 = call i32 @_ZNK5clang19AttributeCommonInfo6getLocEv(ptr noundef nonnull align 8 dereferenceable(32) %15)
  %17 = getelementptr inbounds nuw %"class.clang::SourceLocation", ptr %10, i32 0, i32 0
  store i32 %16, ptr %17, align 4
  %18 = getelementptr inbounds nuw %"class.clang::SourceLocation", ptr %10, i32 0, i32 0
  %19 = load i32, ptr %18, align 4
  call void @_ZN5clang8SemaBase4DiagENS_14SourceLocationEjb(ptr dead_on_unwind writable sret(%"class.clang::SemaBase::SemaDiagnosticBuilder") align 8 %9, ptr noundef nonnull align 8 dereferenceable(8) %14, i32 %19, i32 noundef 3258, i1 noundef zeroext false)
  %20 = load ptr, ptr %7, align 8
  %21 = call noundef nonnull align 8 dereferenceable(96) ptr @_ZN5clanglsINS_10ParsedAttrEEERKNS_8SemaBase21SemaDiagnosticBuilderES5_RKT_(ptr noundef nonnull align 8 dereferenceable(96) %9, ptr noundef nonnull align 8 dereferenceable(72) %20)
  %22 = load ptr, ptr %7, align 8
  %23 = call noundef zeroext i1 @_ZNK5clang19AttributeCommonInfo25isRegularKeywordAttributeEv(ptr noundef nonnull align 8 dereferenceable(32) %22)
  %24 = zext i1 %23 to i8
  store i8 %24, ptr %11, align 1
  %25 = call noundef nonnull align 8 dereferenceable(96) ptr @_ZNK5clang8SemaBase21SemaDiagnosticBuilderlsIbvEERKS1_OT_(ptr noundef nonnull align 8 dereferenceable(96) %21, ptr noundef nonnull align 1 dereferenceable(1) %11)
  %26 = load ptr, ptr %8, align 8
  %27 = call i32 @_ZNK5clang4Stmt11getBeginLocEv(ptr noundef nonnull align 8 dereferenceable(8) %26) #12
  %28 = getelementptr inbounds nuw %"class.clang::SourceLocation", ptr %12, i32 0, i32 0
  store i32 %27, ptr %28, align 4
  %29 = call noundef nonnull align 8 dereferenceable(96) ptr @_ZNK5clang8SemaBase21SemaDiagnosticBuilderlsINS_14SourceLocationEvEERKS1_OT_(ptr noundef nonnull align 8 dereferenceable(96) %25, ptr noundef nonnull align 4 dereferenceable(4) %12)
  call void @_ZN5clang8SemaBase21SemaDiagnosticBuilderD1Ev(ptr noundef nonnull align 8 dereferenceable(96) %9) #4
  ret i1 false
}